target datalayout = "e-m:e-p270:32:32-p271:32:32-p272:64:64-i64:64-i128:128-f80:128-n8:16:32:64-S128"
target triple = "x86_64-pc-linux-gnu"

%struct.loopargs_st = type { ptr, ptr, ptr, ptr, ptr, ptr, ptr, [16 x i8], i64, i64, i64, [7 x ptr], [7 x ptr], [7 x ptr], [7 x ptr], [2 x ptr], [2 x ptr], [22 x ptr], [22 x ptr], [24 x ptr], [2 x ptr], [2 x ptr], [1 x ptr], [1 x ptr], [1 x ptr], ptr, ptr, [24 x i64], [5 x ptr], ptr, ptr, ptr, ptr, [111 x ptr], [111 x ptr], [111 x ptr], [111 x i64], [111 x i64], [111 x ptr], [111 x ptr], [111 x ptr], [111 x ptr], [111 x ptr], [111 x ptr], [111 x i64], [111 x i64], [111 x ptr] }

@testmode = internal global i32 0, align 4
@testnum = internal global i32 0, align 4
@run = internal global i32 0, align 4

; Function Attrs: nounwind uwtable
define internal i32 @FFDH_derive_key_loop(ptr noundef %0) #0 {
  %2 = alloca ptr, align 8
  %3 = alloca ptr, align 8
  %4 = alloca ptr, align 8
  %5 = alloca ptr, align 8
  %6 = alloca i32, align 4
  %7 = alloca i64, align 8
  store ptr %0, ptr %2, align 8, !tbaa !115
  call void @llvm.lifetime.start.p0(i64 8, ptr %3) #11
  %8 = load ptr, ptr %2, align 8, !tbaa !115
  %9 = load ptr, ptr %8, align 8, !tbaa !37
  store ptr %9, ptr %3, align 8, !tbaa !37
  call void @llvm.lifetime.start.p0(i64 8, ptr %4) #11
  %10 = load ptr, ptr %3, align 8, !tbaa !37
  %11 = getelementptr inbounds nuw %struct.loopargs_st, ptr %10, i32 0, i32 28
  %12 = load i32, ptr @testnum, align 4, !tbaa !4
  %13 = zext i32 %12 to i64
  %14 = getelementptr inbounds nuw [5 x ptr], ptr %11, i64 0, i64 %13
  %15 = load ptr, ptr %14, align 8, !tbaa !27
  store ptr %15, ptr %4, align 8, !tbaa !27
  call void @llvm.lifetime.start.p0(i64 8, ptr %5) #11
  %16 = load ptr, ptr %3, align 8, !tbaa !37
  %17 = getelementptr inbounds nuw %struct.loopargs_st, ptr %16, i32 0, i32 29
  %18 = load ptr, ptr %17, align 8, !tbaa !98
  store ptr %18, ptr %5, align 8, !tbaa !39
  call void @llvm.lifetime.start.p0(i64 4, ptr %6) #11
  store i32 0, ptr %6, align 4, !tbaa !4
  br label %19

19:                                               ; preds = %34, %1
  %20 = load volatile i32, ptr @run, align 4, !tbaa !4
  %21 = icmp ne i32 %20, 0
  br i1 %21, label %22, label %28

22:                                               ; preds = %19
  %23 = load i32, ptr %6, align 4, !tbaa !4
  %24 = load i32, ptr @testmode, align 4, !tbaa !4
  %25 = icmp ne i32 %24, 0
  %26 = select i1 %25, i32 1, i32 2147483647
  %27 = icmp slt i32 %23, %26
  br label %28

28:                                               ; preds = %22, %19
  %29 = phi i1 [ false, %19 ], [ %27, %22 ]
  br i1 %29, label %30, label %37

30:                                               ; preds = %28
  call void @llvm.lifetime.start.p0(i64 8, ptr %7) #11
  store i64 1024, ptr %7, align 8, !tbaa !50
  %31 = load ptr, ptr %4, align 8, !tbaa !27
  %32 = load ptr, ptr %5, align 8, !tbaa !39
  %33 = call i32 @EVP_PKEY_derive(ptr noundef %31, ptr noundef %32, ptr noundef %7)
  call void @llvm.lifetime.end.p0(i64 8, ptr %7) #11
  br label %34

34:                                               ; preds = %30
  %35 = load i32, ptr %6, align 4, !tbaa !4
  %36 = add nsw i32 %35, 1
  store i32 %36, ptr %6, align 4, !tbaa !4
  br label %19, !llvm.loop !293

37:                                               ; preds = %28
  %38 = load i32, ptr %6, align 4, !tbaa !4
  call void @llvm.lifetime.end.p0(i64 4, ptr %6) #11
  call void @llvm.lifetime.end.p0(i64 8, ptr %5) #11
  call void @llvm.lifetime.end.p0(i64 8, ptr %4) #11
  call void @llvm.lifetime.end.p0(i64 8, ptr %3) #11
  ret i32 %38
}