; Function Attrs: nounwind uwtable
define internal range(i32 0, -2147483648) i32 @FFDH_derive_key_loop(ptr noundef readonly captures(none) %0) #0 {
  %2 = alloca i64, align 8
  %3 = load ptr, ptr %0, align 8, !tbaa !189
  %4 = getelementptr inbounds nuw i8, ptr %3, i64 1160
  %5 = load i32, ptr @testnum, align 4, !tbaa !13
  %6 = zext i32 %5 to i64
  %7 = getelementptr inbounds nuw [5 x ptr], ptr %4, i64 0, i64 %6
  %8 = load ptr, ptr %7, align 8, !tbaa !15
  %9 = getelementptr inbounds nuw i8, ptr %3, i64 1200
  %10 = load ptr, ptr %9, align 8, !tbaa !59
  %11 = load volatile i32, ptr @run, align 4, !tbaa !13
  %.not7 = icmp eq i32 %11, 0
  br i1 %.not7, label %.critedge, label %.lr.ph

.lr.ph:                                           ; preds = %1, %14
  %.08 = phi i32 [ %16, %14 ], [ 0, %1 ]
  %.b = load i1, ptr @testmode, align 4
  %12 = select i1 %.b, i32 1, i32 2147483647
  %13 = icmp samesign ult i32 %.08, %12
  br i1 %13, label %14, label %.critedge

14:                                               ; preds = %.lr.ph
  call void @llvm.lifetime.start.p0(i64 8, ptr nonnull %2) #14
  store i64 1024, ptr %2, align 8, !tbaa !28
  %15 = call i32 @EVP_PKEY_derive(ptr noundef %8, ptr noundef %10, ptr noundef nonnull %2) #14
  call void @llvm.lifetime.end.p0(i64 8, ptr nonnull %2) #14
  %16 = add nuw nsw i32 %.08, 1
  %17 = load volatile i32, ptr @run, align 4, !tbaa !13
  %.not = icmp eq i32 %17, 0
  br i1 %.not, label %.critedge, label %.lr.ph, !llvm.loop !230

.critedge:                                        ; preds = %.lr.ph, %14, %1
  %.0.lcssa = phi i32 [ 0, %1 ], [ %16, %14 ], [ %.08, %.lr.ph ]
  ret i32 %.0.lcssa
}